; Function Attrs: mustprogress nofree norecurse nosync nounwind willreturn memory(argmem: write) uwtable
define hidden void @_ZN4cvc56parser5LexerC2Ev(ptr noundef nonnull align 8 dereferenceable(32892) initializes((0, 24)) %0) unnamed_addr #4 align 2 personality ptr @__gxx_personality_v0 {
  store ptr getelementptr inbounds nuw inrange(-16, 40) (i8, ptr @_ZTVN4cvc56parser5LexerE, i64 16), ptr %0, align 8, !tbaa !9
  %2 = getelementptr inbounds nuw i8, ptr %0, i64 8
  store i32 1, ptr %2, align 8, !tbaa !3
  %3 = getelementptr inbounds nuw i8, ptr %0, i64 12
  store i32 1, ptr %3, align 4, !tbaa !8
  %4 = getelementptr inbounds nuw i8, ptr %0, i64 16
  store i32 1, ptr %4, align 8, !tbaa !3
  %5 = getelementptr inbounds nuw i8, ptr %0, i64 20
  store i32 1, ptr %5, align 4, !tbaa !8
  %6 = getelementptr inbounds nuw i8, ptr %0, i64 24
  %7 = getelementptr inbounds nuw i8, ptr %0, i64 40
  store ptr %7, ptr %6, align 8, !tbaa !11
  %8 = getelementptr inbounds nuw i8, ptr %0, i64 32
  store i64 0, ptr %8, align 8, !tbaa !15
  store i8 0, ptr %7, align 8, !tbaa !18
  %9 = getelementptr inbounds nuw i8, ptr %0, i64 56
  tail call void @llvm.memset.p0.i64(ptr noundef nonnull align 8 dereferenceable(24) %9, i8 0, i64 24, i1 false)
  %10 = getelementptr inbounds nuw i8, ptr %0, i64 32864
  %11 = getelementptr inbounds nuw i8, ptr %0, i64 32884
  store i8 0, ptr %11, align 4, !tbaa !19
  %12 = getelementptr inbounds nuw i8, ptr %0, i64 32888
  store i32 0, ptr %12, align 8, !tbaa !28
  tail call void @llvm.memset.p0.i64(ptr noundef nonnull align 8 dereferenceable(16) %10, i8 0, i64 16, i1 false)
  ret void
}